; Function Attrs: mustprogress nofree norecurse nosync nounwind willreturn memory(argmem: read) uwtable
define noundef i64 @_ZNK5faiss17ResidualQuantizer16memory_per_pointEi(ptr nocapture noundef nonnull readonly align 8 dereferenceable(432) %0, i32 noundef %1) local_unnamed_addr #9 align 2 {
  %3 = icmp slt i32 %1, 0
  %4 = getelementptr inbounds i8, ptr %0, i64 316
  %5 = load i32, ptr %4, align 4
  %.0 = select i1 %3, i32 %5, i32 %1
  %6 = sext i32 %.0 to i64
  %7 = getelementptr inbounds i8, ptr %0, i64 8
  %8 = load i64, ptr %7, align 8
  %9 = shl i64 %8, 3
  %10 = mul i64 %9, %6
  %11 = mul nsw i32 %.0, %.0
  %12 = zext nneg i32 %11 to i64
  %13 = mul nuw nsw i64 %12, 12
  %14 = add i64 %13, %10
  ret i64 %14
}